; Function Attrs: mustprogress nounwind uwtable
define hidden void @_ZN7nmethod25run_nmethod_entry_barrierEv(ptr noundef nonnull align 8 dereferenceable(214) %0) local_unnamed_addr #0 align 2 {
  %2 = load ptr, ptr @_ZN10BarrierSet12_barrier_setE, align 8
  %3 = getelementptr inbounds i8, ptr %2, i64 48
  %4 = load ptr, ptr %3, align 8
  %.not = icmp eq ptr %4, null
  br i1 %.not, label %9, label %5

5:                                                ; preds = %1
  %6 = load ptr, ptr %4, align 8
  %7 = load ptr, ptr %6, align 8
  %8 = tail call noundef zeroext i1 %7(ptr noundef nonnull align 8 dereferenceable(12) %4, ptr noundef nonnull %0) #23
  br label %9

9:                                                ; preds = %5, %1
  ret void
}